; Function Attrs: null_pointer_is_valid sspstrong uwtable
define internal void @rfcomm_channels_payload_proto_set_cb(ptr noundef captures(none) initializes((8, 24)) %0, ptr noundef %1, i32 noundef %2, ptr readnone captures(none) %3, ptr readnone captures(none) %4) #0 {
  %.not = icmp eq i32 %2, 0
  br i1 %.not, label %14, label %6

6:                                                ; preds = %5
  %7 = zext i32 %2 to i64
  %8 = tail call noalias ptr @g_strndup(ptr noundef %1, i64 noundef %7)
  %9 = getelementptr inbounds nuw i8, ptr %0, i64 8
  store ptr %8, ptr %9, align 8
  %10 = tail call ptr @g_strchug(ptr noundef %8)
  %11 = tail call ptr @g_strchomp(ptr noundef %10)
  %12 = load ptr, ptr %9, align 8
  %13 = tail call ptr @find_dissector(ptr noundef %12)
  br label %17

14:                                               ; preds = %5
  %15 = tail call ptr @find_dissector(ptr noundef nonnull @.str.191)
  %16 = getelementptr inbounds nuw i8, ptr %0, i64 8
  store ptr null, ptr %16, align 8
  br label %17

17:                                               ; preds = %14, %6
  %.sink = phi ptr [ %15, %14 ], [ %13, %6 ]
  %18 = getelementptr inbounds nuw i8, ptr %0, i64 16
  store ptr %.sink, ptr %18, align 8
  ret void
}